target datalayout = "e-m:e-p270:32:32-p271:32:32-p272:64:64-i64:64-i128:128-f80:128-n8:16:32:64-S128"
target triple = "x86_64-unknown-linux-gnu"

@.str = private unnamed_addr constant [16 x i8] c"/proc/self/stat\00", align 1

; Function Attrs: nounwind uwtable
define dso_local i32 @get_proc_stat_ll(i32 noundef %i, ptr noundef %res) #0 {
entry:
  %retval = alloca i32, align 4
  %i.addr = alloca i32, align 4
  %res.addr = alloca ptr, align 8
  %buf = alloca [4096 x i8], align 16
  %fd = alloca i32, align 4
  %l = alloca i32, align 4
  %p = alloca ptr, align 8
  %x = alloca ptr, align 8
  store i32 %i, ptr %i.addr, align 4
  store ptr %res, ptr %res.addr, align 8
  %call = call i32 (ptr, i32, ...) @open64(ptr noundef @.str, i32 noundef 0)
  store i32 %call, ptr %fd, align 4
  %cmp = icmp eq i32 %call, -1
  br i1 %cmp, label %if.then, label %if.end

if.then:                                          ; preds = %entry
  store i32 0, ptr %retval, align 4
  br label %return

if.end:                                           ; preds = %entry
  %0 = load i32, ptr %fd, align 4
  %arraydecay = getelementptr inbounds [4096 x i8], ptr %buf, i64 0, i64 0
  %call1 = call i64 @read(i32 noundef %0, ptr noundef %arraydecay, i64 noundef 4095)
  %conv = trunc i64 %call1 to i32
  store i32 %conv, ptr %l, align 4
  %cmp2 = icmp sle i32 %conv, 0
  br i1 %cmp2, label %if.then4, label %if.end6

if.then4:                                         ; preds = %if.end
  %1 = load i32, ptr %fd, align 4
  %call5 = call i32 @close(i32 noundef %1)
  store i32 0, ptr %retval, align 4
  br label %return

if.end6:                                          ; preds = %if.end
  %2 = load i32, ptr %fd, align 4
  %call7 = call i32 @close(i32 noundef %2)
  %3 = load i32, ptr %l, align 4
  %idxprom = sext i32 %3 to i64
  %arrayidx = getelementptr inbounds [4096 x i8], ptr %buf, i64 0, i64 %idxprom
  store i8 0, ptr %arrayidx, align 1
  %4 = load i32, ptr %l, align 4
  %sub = sub nsw i32 %4, 1
  %idxprom8 = sext i32 %sub to i64
  %arrayidx9 = getelementptr inbounds [4096 x i8], ptr %buf, i64 0, i64 %idxprom8
  %5 = load i8, ptr %arrayidx9, align 1
  %conv10 = sext i8 %5 to i32
  %cmp11 = icmp eq i32 %conv10, 10
  br i1 %cmp11, label %if.then13, label %if.end17

if.then13:                                        ; preds = %if.end6
  %6 = load i32, ptr %l, align 4
  %sub14 = sub nsw i32 %6, 1
  %idxprom15 = sext i32 %sub14 to i64
  %arrayidx16 = getelementptr inbounds [4096 x i8], ptr %buf, i64 0, i64 %idxprom15
  store i8 0, ptr %arrayidx16, align 1
  br label %if.end17

if.end17:                                         ; preds = %if.then13, %if.end6
  %arraydecay18 = getelementptr inbounds [4096 x i8], ptr %buf, i64 0, i64 0
  %call19 = call ptr @strrchr(ptr noundef %arraydecay18, i32 noundef 41) #17
  store ptr %call19, ptr %p, align 8
  %7 = load ptr, ptr %p, align 8
  %tobool = icmp ne ptr %7, null
  br i1 %tobool, label %if.end21, label %if.then20

if.then20:                                        ; preds = %if.end17
  store i32 0, ptr %retval, align 4
  br label %return

if.end21:                                         ; preds = %if.end17
  %8 = load ptr, ptr %p, align 8
  %incdec.ptr = getelementptr inbounds i8, ptr %8, i32 1
  store ptr %incdec.ptr, ptr %p, align 8
  br label %while.cond

while.cond:                                       ; preds = %while.body, %if.end21
  %9 = load ptr, ptr %p, align 8
  %10 = load i8, ptr %9, align 1
  %conv22 = sext i8 %10 to i32
  %cmp23 = icmp eq i32 %conv22, 32
  br i1 %cmp23, label %while.body, label %while.end

while.body:                                       ; preds = %while.cond
  %11 = load ptr, ptr %p, align 8
  %incdec.ptr25 = getelementptr inbounds i8, ptr %11, i32 1
  store ptr %incdec.ptr25, ptr %p, align 8
  br label %while.cond, !llvm.loop !5

while.end:                                        ; preds = %while.cond
  %12 = load ptr, ptr %p, align 8
  %13 = load i8, ptr %12, align 1
  %conv26 = sext i8 %13 to i32
  %cmp27 = icmp eq i32 %conv26, 0
  br i1 %cmp27, label %if.then29, label %if.end30

if.then29:                                        ; preds = %while.end
  store i32 0, ptr %retval, align 4
  br label %return

if.end30:                                         ; preds = %while.end
  %14 = load i32, ptr %i.addr, align 4
  %sub31 = sub nsw i32 %14, 3
  store i32 %sub31, ptr %i.addr, align 4
  %15 = load i32, ptr %i.addr, align 4
  %cmp32 = icmp slt i32 %15, 0
  br i1 %cmp32, label %if.then34, label %if.end35

if.then34:                                        ; preds = %if.end30
  store i32 0, ptr %retval, align 4
  br label %return

if.end35:                                         ; preds = %if.end30
  br label %while.cond36

while.cond36:                                     ; preds = %if.end44, %if.end35
  %16 = load ptr, ptr %p, align 8
  %tobool37 = icmp ne ptr %16, null
  br i1 %tobool37, label %land.rhs, label %land.end

land.rhs:                                         ; preds = %while.cond36
  %17 = load i32, ptr %i.addr, align 4
  %dec = add nsw i32 %17, -1
  store i32 %dec, ptr %i.addr, align 4
  %tobool38 = icmp ne i32 %17, 0
  br label %land.end

land.end:                                         ; preds = %land.rhs, %while.cond36
  %18 = phi i1 [ false, %while.cond36 ], [ %tobool38, %land.rhs ]
  br i1 %18, label %while.body39, label %while.end45

while.body39:                                     ; preds = %land.end
  %19 = load ptr, ptr %p, align 8
  %call40 = call ptr @strchr(ptr noundef %19, i32 noundef 32) #17
  store ptr %call40, ptr %p, align 8
  %20 = load ptr, ptr %p, align 8
  %tobool41 = icmp ne ptr %20, null
  br i1 %tobool41, label %if.then42, label %if.else

if.then42:                                        ; preds = %while.body39
  %21 = load ptr, ptr %p, align 8
  %incdec.ptr43 = getelementptr inbounds i8, ptr %21, i32 1
  store ptr %incdec.ptr43, ptr %p, align 8
  br label %if.end44

if.else:                                          ; preds = %while.body39
  store i32 0, ptr %retval, align 4
  br label %return

if.end44:                                         ; preds = %if.then42
  br label %while.cond36, !llvm.loop !7

while.end45:                                      ; preds = %land.end
  %22 = load ptr, ptr %p, align 8
  %call46 = call ptr @strchr(ptr noundef %22, i32 noundef 32) #17
  store ptr %call46, ptr %x, align 8
  %23 = load ptr, ptr %x, align 8
  %tobool47 = icmp ne ptr %23, null
  br i1 %tobool47, label %if.then48, label %if.end49

if.then48:                                        ; preds = %while.end45
  %24 = load ptr, ptr %x, align 8
  store i8 0, ptr %24, align 1
  br label %if.end49

if.end49:                                         ; preds = %if.then48, %while.end45
  %25 = load ptr, ptr %p, align 8
  %call50 = call i64 @strtoll(ptr noundef %25, ptr noundef %x, i32 noundef 10) #12
  %26 = load ptr, ptr %res.addr, align 8
  store i64 %call50, ptr %26, align 8
  %27 = load ptr, ptr %x, align 8
  %28 = load i8, ptr %27, align 1
  %conv51 = sext i8 %28 to i32
  %cmp52 = icmp ne i32 %conv51, 0
  br i1 %cmp52, label %if.then54, label %if.end55

if.then54:                                        ; preds = %if.end49
  store i32 0, ptr %retval, align 4
  br label %return

if.end55:                                         ; preds = %if.end49
  store i32 1, ptr %retval, align 4
  br label %return

return:                                           ; preds = %if.end55, %if.then54, %if.else, %if.then34, %if.then29, %if.then20, %if.then4, %if.then
  %29 = load i32, ptr %retval, align 4
  ret i32 %29
}