; Function Attrs: nounwind uwtable
define dso_local i32 @get_proc_stat_ll(i32 noundef %i, ptr nocapture noundef writeonly %res) local_unnamed_addr #3 {
entry:
  %buf = alloca [4096 x i8], align 16
  %x = alloca ptr, align 8
  %call = tail call i32 (ptr, i32, ...) @open64(ptr noundef nonnull @.str, i32 noundef 0) #24
  %cmp = icmp eq i32 %call, -1
  br i1 %cmp, label %return, label %if.end

if.end:                                           ; preds = %entry
  %call1 = call i64 @read(i32 noundef %call, ptr noundef nonnull %buf, i64 noundef 4095) #24
  %conv = trunc i64 %call1 to i32
  %cmp2 = icmp slt i32 %conv, 1
  %call5 = tail call i32 @close(i32 noundef %call) #24
  br i1 %cmp2, label %return, label %if.end6

if.end6:                                          ; preds = %if.end
  %idxprom = and i64 %call1, 2147483647
  %arrayidx = getelementptr inbounds [4096 x i8], ptr %buf, i64 0, i64 %idxprom
  store i8 0, ptr %arrayidx, align 1
  %sub = add i64 %call1, 4294967295
  %idxprom8 = and i64 %sub, 4294967295
  %arrayidx9 = getelementptr inbounds [4096 x i8], ptr %buf, i64 0, i64 %idxprom8
  %0 = load i8, ptr %arrayidx9, align 1
  %cmp11 = icmp eq i8 %0, 10
  br i1 %cmp11, label %if.then13, label %if.end17

if.then13:                                        ; preds = %if.end6
  store i8 0, ptr %arrayidx9, align 1
  br label %if.end17

if.end17:                                         ; preds = %if.then13, %if.end6
  %call19 = call ptr @strrchr(ptr noundef nonnull dereferenceable(1) %buf, i32 noundef 41) #28
  %tobool.not = icmp eq ptr %call19, null
  br i1 %tobool.not, label %return, label %while.cond

while.cond:                                       ; preds = %if.end17, %while.cond
  %call19.pn = phi ptr [ %p.0, %while.cond ], [ %call19, %if.end17 ]
  %p.0 = getelementptr inbounds i8, ptr %call19.pn, i64 1
  %1 = load i8, ptr %p.0, align 1
  switch i8 %1, label %if.end30 [
    i8 32, label %while.cond
    i8 0, label %return
  ]

if.end30:                                         ; preds = %while.cond
  %cmp32 = icmp slt i32 %i, 3
  br i1 %cmp32, label %return, label %while.cond36.preheader

while.cond36.preheader:                           ; preds = %if.end30
  %tobool38.not21 = icmp eq i32 %i, 3
  br i1 %tobool38.not21, label %while.end45, label %while.body39.preheader

while.body39.preheader:                           ; preds = %while.cond36.preheader
  %dec20 = add nsw i32 %i, -4
  br label %while.body39

while.cond36:                                     ; preds = %while.body39
  %incdec.ptr43 = getelementptr inbounds i8, ptr %call40, i64 1
  %dec = add nsw i32 %dec23, -1
  %tobool38.not = icmp eq i32 %dec23, 0
  br i1 %tobool38.not, label %while.end45, label %while.body39, !llvm.loop !5

while.body39:                                     ; preds = %while.body39.preheader, %while.cond36
  %dec23 = phi i32 [ %dec, %while.cond36 ], [ %dec20, %while.body39.preheader ]
  %p.122 = phi ptr [ %incdec.ptr43, %while.cond36 ], [ %p.0, %while.body39.preheader ]
  %call40 = call ptr @strchr(ptr noundef nonnull dereferenceable(1) %p.122, i32 noundef 32) #28
  %tobool41.not = icmp eq ptr %call40, null
  br i1 %tobool41.not, label %return, label %while.cond36

while.end45:                                      ; preds = %while.cond36, %while.cond36.preheader
  %p.1.lcssa = phi ptr [ %p.0, %while.cond36.preheader ], [ %incdec.ptr43, %while.cond36 ]
  %call46 = call ptr @strchr(ptr noundef nonnull dereferenceable(1) %p.1.lcssa, i32 noundef 32) #28
  store ptr %call46, ptr %x, align 8
  %tobool47.not = icmp eq ptr %call46, null
  br i1 %tobool47.not, label %if.end49, label %if.then48

if.then48:                                        ; preds = %while.end45
  store i8 0, ptr %call46, align 1
  br label %if.end49

if.end49:                                         ; preds = %if.then48, %while.end45
  %call50 = call i64 @strtoll(ptr noundef nonnull %p.1.lcssa, ptr noundef nonnull %x, i32 noundef 10) #24
  store i64 %call50, ptr %res, align 8
  %2 = load ptr, ptr %x, align 8
  %3 = load i8, ptr %2, align 1
  %cmp52.not = icmp eq i8 %3, 0
  %. = zext i1 %cmp52.not to i32
  br label %return

return:                                           ; preds = %while.cond, %while.body39, %if.end, %if.end49, %if.end30, %if.end17, %entry
  %retval.0 = phi i32 [ 0, %entry ], [ 0, %if.end17 ], [ 0, %if.end30 ], [ %., %if.end49 ], [ 0, %if.end ], [ 0, %while.body39 ], [ 0, %while.cond ]
  ret i32 %retval.0
}